target datalayout = "e-m:e-p270:32:32-p271:32:32-p272:64:64-i64:64-i128:128-f80:128-n8:16:32:64-S128"
target triple = "x86_64-pc-linux-gnu"

%struct.stbtt__buf = type { ptr, i32, i32 }

; Function Attrs: nounwind uwtable
define { ptr, i64 } @stbtt__new_buf(ptr noundef %0, i64 noundef %1) #0 {
  %3 = alloca %struct.stbtt__buf, align 8
  %4 = alloca ptr, align 8
  %5 = alloca i64, align 8
  store ptr %0, ptr %4, align 8, !tbaa !3
  store i64 %1, ptr %5, align 8, !tbaa !17
  %6 = load ptr, ptr %4, align 8, !tbaa !3
  %7 = getelementptr inbounds nuw %struct.stbtt__buf, ptr %3, i32 0, i32 0
  store ptr %6, ptr %7, align 8, !tbaa !12
  %8 = load i64, ptr %5, align 8, !tbaa !17
  %9 = trunc i64 %8 to i32
  %10 = getelementptr inbounds nuw %struct.stbtt__buf, ptr %3, i32 0, i32 2
  store i32 %9, ptr %10, align 4, !tbaa !11
  %11 = getelementptr inbounds nuw %struct.stbtt__buf, ptr %3, i32 0, i32 1
  store i32 0, ptr %11, align 8, !tbaa !7
  %12 = load { ptr, i64 }, ptr %3, align 8
  ret { ptr, i64 } %12
}

; Function Attrs: nounwind uwtable
define { ptr, i64 } @stbtt__buf_range(ptr noundef %0, i32 noundef %1, i32 noundef %2) #0 {
  %4 = alloca %struct.stbtt__buf, align 8
  %5 = alloca ptr, align 8
  %6 = alloca i32, align 4
  %7 = alloca i32, align 4
  store ptr %0, ptr %5, align 8, !tbaa !3
  store i32 %1, ptr %6, align 4, !tbaa !14
  store i32 %2, ptr %7, align 4, !tbaa !14
  %8 = call { ptr, i64 } @stbtt__new_buf(ptr noundef null, i64 noundef 0)
  %9 = getelementptr inbounds nuw { ptr, i64 }, ptr %4, i32 0, i32 0
  %10 = extractvalue { ptr, i64 } %8, 0
  store ptr %10, ptr %9, align 8
  %11 = getelementptr inbounds nuw { ptr, i64 }, ptr %4, i32 0, i32 1
  %12 = extractvalue { ptr, i64 } %8, 1
  store i64 %12, ptr %11, align 8
  %13 = load i32, ptr %6, align 4, !tbaa !14
  %14 = icmp slt i32 %13, 0
  br i1 %14, label %32, label %15

15:                                               ; preds = %3
  %16 = load i32, ptr %7, align 4, !tbaa !14
  %17 = icmp slt i32 %16, 0
  br i1 %17, label %32, label %18

18:                                               ; preds = %15
  %19 = load i32, ptr %6, align 4, !tbaa !14
  %20 = load ptr, ptr %5, align 8, !tbaa !3
  %21 = getelementptr inbounds nuw %struct.stbtt__buf, ptr %20, i32 0, i32 2
  %22 = load i32, ptr %21, align 4, !tbaa !11
  %23 = icmp sgt i32 %19, %22
  br i1 %23, label %32, label %24

24:                                               ; preds = %18
  %25 = load i32, ptr %7, align 4, !tbaa !14
  %26 = load ptr, ptr %5, align 8, !tbaa !3
  %27 = getelementptr inbounds nuw %struct.stbtt__buf, ptr %26, i32 0, i32 2
  %28 = load i32, ptr %27, align 4, !tbaa !11
  %29 = load i32, ptr %6, align 4, !tbaa !14
  %30 = sub nsw i32 %28, %29
  %31 = icmp sgt i32 %25, %30
  br i1 %31, label %32, label %33

32:                                               ; preds = %24, %18, %15, %3
  br label %43

33:                                               ; preds = %24
  %34 = load ptr, ptr %5, align 8, !tbaa !3
  %35 = getelementptr inbounds nuw %struct.stbtt__buf, ptr %34, i32 0, i32 0
  %36 = load ptr, ptr %35, align 8, !tbaa !12
  %37 = load i32, ptr %6, align 4, !tbaa !14
  %38 = sext i32 %37 to i64
  %39 = getelementptr inbounds i8, ptr %36, i64 %38
  %40 = getelementptr inbounds nuw %struct.stbtt__buf, ptr %4, i32 0, i32 0
  store ptr %39, ptr %40, align 8, !tbaa !12
  %41 = load i32, ptr %7, align 4, !tbaa !14
  %42 = getelementptr inbounds nuw %struct.stbtt__buf, ptr %4, i32 0, i32 2
  store i32 %41, ptr %42, align 4, !tbaa !11
  br label %43

43:                                               ; preds = %33, %32
  %44 = load { ptr, i64 }, ptr %4, align 8
  ret { ptr, i64 } %44
}