; Function Attrs: mustprogress nofree norecurse nosync nounwind willreturn memory(argmem: read) uwtable
define { ptr, i64 } @stbtt__buf_range(ptr noundef readonly captures(none) %0, i32 noundef %1, i32 noundef %2) local_unnamed_addr #6 {
  %4 = or i32 %2, %1
  %or.cond.not = icmp sgt i32 %4, -1
  br i1 %or.cond.not, label %5, label %17

5:                                                ; preds = %3
  %6 = getelementptr inbounds nuw i8, ptr %0, i64 12
  %7 = load i32, ptr %6, align 4, !tbaa !10
  %8 = icmp sgt i32 %1, %7
  %9 = sub nsw i32 %7, %1
  %10 = icmp sgt i32 %2, %9
  %or.cond = select i1 %8, i1 true, i1 %10
  br i1 %or.cond, label %17, label %11

11:                                               ; preds = %5
  %12 = load ptr, ptr %0, align 8, !tbaa !11
  %13 = zext nneg i32 %1 to i64
  %14 = getelementptr inbounds nuw i8, ptr %12, i64 %13
  %15 = zext i32 %2 to i64
  %16 = shl nuw i64 %15, 32
  br label %17

17:                                               ; preds = %3, %5, %11
  %.sroa.0.0 = phi ptr [ null, %3 ], [ null, %5 ], [ %14, %11 ]
  %.sroa.5.0 = phi i64 [ 0, %3 ], [ 0, %5 ], [ %16, %11 ]
  %.fca.0.insert = insertvalue { ptr, i64 } poison, ptr %.sroa.0.0, 0
  %.fca.1.insert = insertvalue { ptr, i64 } %.fca.0.insert, i64 %.sroa.5.0, 1
  ret { ptr, i64 } %.fca.1.insert
}